CCS PCM C Compiler, Version 5.007, 61971               29-Haz-19 15:48

               Filename:   C:\Users\ibrah\Desktop\YENÝ PROJE\main.lst

               ROM used:   142 words (2%)
                           Largest free fragment is 2048
               RAM used:   10 (3%) at main() level
                           10 (3%) worst case
               Stack used: 0 locations
               Stack size: 8

*
0000:  MOVLW  00
0001:  MOVWF  0A
0002:  GOTO   004
0003:  NOP
.................... #include <main.h> 
.................... #include <16F877A.h> 
.................... //////// Standard Header file for the PIC16F877A device //////////////// 
.................... #device PIC16F877A 
....................  
.................... #list 
....................  
.................... #device ADC=16 
....................  
.................... #FUSES NOWDT                 	//No Watch Dog Timer 
.................... #FUSES NOBROWNOUT            	//No brownout reset 
.................... #FUSES NOLVP                 	//No low voltage prgming, B3(PIC16) or B5(PIC18) used for I/O 
....................  
.................... #use delay(crystal=20000000) 
....................  
....................  
.................... #byte portc=7 
.................... #byte porta=5 
.................... #byte portb=6 
.................... int firstbutton; 
.................... int secondbutton; 
.................... int thirdbutton; 
.................... void main() 
0004:  MOVLW  FF
0005:  MOVWF  23
0006:  BSF    03.5
0007:  BSF    1F.0
0008:  BSF    1F.1
0009:  BSF    1F.2
000A:  BCF    1F.3
000B:  MOVLW  07
000C:  MOVWF  1C
000D:  BCF    03.7
000E:  MOVLW  1F
000F:  ANDWF  03,F
.................... { 
.................... set_tris_a(0x00); 
0010:  MOVLW  00
0011:  MOVWF  05
.................... set_tris_c(0x00); 
0012:  MOVWF  07
0013:  BCF    03.5
0014:  MOVWF  23
.................... set_tris_b(0xff); 
0015:  MOVLW  FF
0016:  BSF    03.5
0017:  MOVWF  06
.................... portc=0xff; 
0018:  BCF    03.5
0019:  MOVWF  07
....................    while(TRUE) 
....................    { 
....................       portc=11111111; 
001A:  MOVLW  C7
001B:  MOVWF  07
....................       firstbutton=input(pin_B0); 
001C:  BSF    03.5
001D:  BSF    06.0
001E:  BCF    03.5
001F:  CLRF   20
0020:  BTFSC  06.0
0021:  INCF   20,F
....................       secondbutton=input(pin_B1); 
0022:  BSF    03.5
0023:  BSF    06.1
0024:  BCF    03.5
0025:  CLRF   21
0026:  BTFSC  06.1
0027:  INCF   21,F
....................       thirdbutton=input(pin_B2); 
0028:  BSF    03.5
0029:  BSF    06.2
002A:  BCF    03.5
002B:  CLRF   22
002C:  BTFSC  06.2
002D:  INCF   22,F
....................        
....................       if(firstbutton==1 & secondbutton==0 & thirdbutton==0 ) 
002E:  DECFSZ 20,W
002F:  GOTO   031
0030:  GOTO   033
0031:  MOVLW  00
0032:  GOTO   034
0033:  MOVLW  01
0034:  MOVWF  24
0035:  MOVF   21,F
0036:  BTFSC  03.2
0037:  GOTO   03A
0038:  MOVLW  00
0039:  GOTO   03B
003A:  MOVLW  01
003B:  ANDWF  24,F
003C:  MOVF   22,F
003D:  BTFSC  03.2
003E:  GOTO   041
003F:  MOVLW  00
0040:  GOTO   042
0041:  MOVLW  01
0042:  ANDWF  24,W
0043:  BTFSC  03.2
0044:  GOTO   048
....................       { 
....................       porta=00000101; 
0045:  MOVLW  41
0046:  MOVWF  05
....................        
....................      
....................     } 
0047:  GOTO   08C
....................      
....................     
....................       else if(secondbutton==1 & firstbutton==0 & thirdbutton==0 ) 
0048:  DECFSZ 21,W
0049:  GOTO   04B
004A:  GOTO   04D
004B:  MOVLW  00
004C:  GOTO   04E
004D:  MOVLW  01
004E:  MOVWF  24
004F:  MOVF   20,F
0050:  BTFSC  03.2
0051:  GOTO   054
0052:  MOVLW  00
0053:  GOTO   055
0054:  MOVLW  01
0055:  ANDWF  24,F
0056:  MOVF   22,F
0057:  BTFSC  03.2
0058:  GOTO   05B
0059:  MOVLW  00
005A:  GOTO   05C
005B:  MOVLW  01
005C:  ANDWF  24,W
005D:  BTFSC  03.2
005E:  GOTO   062
....................       { 
....................      porta=00000110; 
005F:  MOVLW  48
0060:  MOVWF  05
....................       
....................       
....................       } 
0061:  GOTO   08C
....................       
....................      else if (thirdbutton==1 & firstbutton==0 & secondbutton==0) 
0062:  DECFSZ 22,W
0063:  GOTO   065
0064:  GOTO   067
0065:  MOVLW  00
0066:  GOTO   068
0067:  MOVLW  01
0068:  MOVWF  24
0069:  MOVF   20,F
006A:  BTFSC  03.2
006B:  GOTO   06E
006C:  MOVLW  00
006D:  GOTO   06F
006E:  MOVLW  01
006F:  ANDWF  24,F
0070:  MOVF   21,F
0071:  BTFSC  03.2
0072:  GOTO   075
0073:  MOVLW  00
0074:  GOTO   076
0075:  MOVLW  01
0076:  ANDWF  24,W
0077:  BTFSC  03.2
0078:  GOTO   07C
....................       { 
....................      porta=00000111; //TODO: User Code 
0079:  MOVLW  49
007A:  MOVWF  05
....................    } 
007B:  GOTO   08C
....................    else  
.................... { 
....................  output_low(pin_a0); 
007C:  BSF    03.5
007D:  BCF    05.0
007E:  BCF    03.5
007F:  BCF    05.0
....................  output_low(pin_a1); 
0080:  BSF    03.5
0081:  BCF    05.1
0082:  BCF    03.5
0083:  BCF    05.1
....................  output_low(pin_a2); 
0084:  BSF    03.5
0085:  BCF    05.2
0086:  BCF    03.5
0087:  BCF    05.2
....................  output_low(pin_a3); 
0088:  BSF    03.5
0089:  BCF    05.3
008A:  BCF    03.5
008B:  BCF    05.3
.................... } 
008C:  GOTO   01A
....................  
.................... } 
.................... } 
....................  
008D:  SLEEP

Configuration Fuses:
   Word  1: 3F32   HS NOWDT PUT NOBROWNOUT NOLVP NOCPD NOWRT NODEBUG NOPROTECT
